target datalayout = "e-m:e-p270:32:32-p271:32:32-p272:64:64-i64:64-i128:128-f80:128-n8:16:32:64-S128"
target triple = "x86_64-pc-linux-gnu"

%struct._tvbparse_wanted_t = type { i32, ptr, %union.anon, i32, i32, i32, ptr, ptr, ptr }
%union.anon = type { %struct.anon.2 }
%struct.anon.2 = type { ptr, ptr, ptr }
%struct.anon.1 = type { i32, ptr }

; Function Attrs: null_pointer_is_valid sspstrong uwtable
define ptr @tvbparse_until(i32 noundef %0, ptr noundef %1, ptr noundef %2, ptr noundef %3, ptr noundef %4, i32 noundef %5) #0 {
  %7 = alloca i32, align 4
  %8 = alloca ptr, align 8
  %9 = alloca ptr, align 8
  %10 = alloca ptr, align 8
  %11 = alloca ptr, align 8
  %12 = alloca i32, align 4
  %13 = alloca ptr, align 8
  store i32 %0, ptr %7, align 4
  store ptr %1, ptr %8, align 8
  store ptr %2, ptr %9, align 8
  store ptr %3, ptr %10, align 8
  store ptr %4, ptr %11, align 8
  store i32 %5, ptr %12, align 4
  call void @llvm.lifetime.start.p0(i64 8, ptr %13) #11
  %14 = call ptr @wmem_epan_scope()
  %15 = call noalias ptr @wmem_alloc0(ptr noundef %14, i64 noundef 80) #12
  store ptr %15, ptr %13, align 8
  %16 = load ptr, ptr %13, align 8
  %17 = getelementptr inbounds nuw %struct._tvbparse_wanted_t, ptr %16, i32 0, i32 1
  store ptr @cond_until, ptr %17, align 8
  %18 = load i32, ptr %12, align 4
  %19 = load ptr, ptr %13, align 8
  %20 = getelementptr inbounds nuw %struct._tvbparse_wanted_t, ptr %19, i32 0, i32 2
  %21 = getelementptr inbounds nuw %struct.anon.1, ptr %20, i32 0, i32 0
  store i32 %18, ptr %21, align 8
  %22 = load ptr, ptr %11, align 8
  %23 = load ptr, ptr %13, align 8
  %24 = getelementptr inbounds nuw %struct._tvbparse_wanted_t, ptr %23, i32 0, i32 2
  %25 = getelementptr inbounds nuw %struct.anon.1, ptr %24, i32 0, i32 1
  store ptr %22, ptr %25, align 8
  %26 = load i32, ptr %7, align 4
  %27 = load ptr, ptr %13, align 8
  %28 = getelementptr inbounds nuw %struct._tvbparse_wanted_t, ptr %27, i32 0, i32 0
  store i32 %26, ptr %28, align 8
  %29 = load ptr, ptr %8, align 8
  %30 = load ptr, ptr %13, align 8
  %31 = getelementptr inbounds nuw %struct._tvbparse_wanted_t, ptr %30, i32 0, i32 6
  store ptr %29, ptr %31, align 8
  %32 = load ptr, ptr %9, align 8
  %33 = load ptr, ptr %13, align 8
  %34 = getelementptr inbounds nuw %struct._tvbparse_wanted_t, ptr %33, i32 0, i32 7
  store ptr %32, ptr %34, align 8
  %35 = load ptr, ptr %10, align 8
  %36 = load ptr, ptr %13, align 8
  %37 = getelementptr inbounds nuw %struct._tvbparse_wanted_t, ptr %36, i32 0, i32 8
  store ptr %35, ptr %37, align 8
  %38 = load ptr, ptr %13, align 8
  call void @llvm.lifetime.end.p0(i64 8, ptr %13) #11
  ret ptr %38
}