; Function Attrs: null_pointer_is_valid sspstrong uwtable
define noalias noundef ptr @tvbparse_until(i32 noundef %0, ptr noundef %1, ptr noundef %2, ptr noundef %3, ptr noundef %4, i32 noundef %5) local_unnamed_addr #0 {
  %7 = tail call ptr @wmem_epan_scope()
  %8 = tail call noalias dereferenceable_or_null(80) ptr @wmem_alloc0(ptr noundef %7, i64 noundef 80) #11
  %9 = getelementptr inbounds nuw i8, ptr %8, i64 8
  store ptr @cond_until, ptr %9, align 8
  %10 = getelementptr inbounds nuw i8, ptr %8, i64 16
  store i32 %5, ptr %10, align 8
  %11 = getelementptr inbounds nuw i8, ptr %8, i64 24
  store ptr %4, ptr %11, align 8
  store i32 %0, ptr %8, align 8
  %12 = getelementptr inbounds nuw i8, ptr %8, i64 56
  store ptr %1, ptr %12, align 8
  %13 = getelementptr inbounds nuw i8, ptr %8, i64 64
  store ptr %2, ptr %13, align 8
  %14 = getelementptr inbounds nuw i8, ptr %8, i64 72
  store ptr %3, ptr %14, align 8
  ret ptr %8
}